target datalayout = "e-m:e-p270:32:32-p271:32:32-p272:64:64-i64:64-i128:128-f80:128-n8:16:32:64-S128"
target triple = "x86_64-pc-linux-gnu"

%struct.Vec_Str_t_ = type { i32, i32, ptr }
%struct.SC_DontUse_ = type { i32, ptr }
%struct.Vec_Ptr_t_ = type { i32, i32, ptr }
%struct.SC_Lib_ = type { ptr, ptr, ptr, ptr, float, i32, float, i32, %struct.Vec_Ptr_t_, %struct.Vec_Ptr_t_, %struct.Vec_Ptr_t_, %struct.Vec_Ptr_t_, %struct.Vec_Ptr_t_, ptr, i32 }

; Function Attrs: nounwind uwtable
define internal void @Vec_StrFree(ptr noundef %0) #0 {
  %2 = alloca ptr, align 8
  store ptr %0, ptr %2, align 8
  %3 = load ptr, ptr %2, align 8
  %4 = getelementptr inbounds %struct.Vec_Str_t_, ptr %3, i32 0, i32 2
  %5 = load ptr, ptr %4, align 8
  %6 = icmp ne ptr %5, null
  br i1 %6, label %7, label %13

7:                                                ; preds = %1
  %8 = load ptr, ptr %2, align 8
  %9 = getelementptr inbounds %struct.Vec_Str_t_, ptr %8, i32 0, i32 2
  %10 = load ptr, ptr %9, align 8
  call void @free(ptr noundef %10) #10
  %11 = load ptr, ptr %2, align 8
  %12 = getelementptr inbounds %struct.Vec_Str_t_, ptr %11, i32 0, i32 2
  store ptr null, ptr %12, align 8
  br label %14

13:                                               ; preds = %1
  br label %14

14:                                               ; preds = %13, %7
  %15 = load ptr, ptr %2, align 8
  %16 = icmp ne ptr %15, null
  br i1 %16, label %17, label %19

17:                                               ; preds = %14
  %18 = load ptr, ptr %2, align 8
  call void @free(ptr noundef %18) #10
  store ptr null, ptr %2, align 8
  br label %20

19:                                               ; preds = %14
  br label %20

20:                                               ; preds = %19, %17
  ret void
}

; Function Attrs: nounwind uwtable
define internal ptr @Abc_UtilStrsav(ptr noundef %0) #0 {
  %2 = alloca ptr, align 8
  store ptr %0, ptr %2, align 8
  %3 = load ptr, ptr %2, align 8
  %4 = icmp ne ptr %3, null
  br i1 %4, label %5, label %13

5:                                                ; preds = %1
  %6 = load ptr, ptr %2, align 8
  %7 = call i64 @strlen(ptr noundef %6) #11
  %8 = add i64 %7, 1
  %9 = mul i64 1, %8
  %10 = call noalias ptr @malloc(i64 noundef %9) #12
  %11 = load ptr, ptr %2, align 8
  %12 = call ptr @strcpy(ptr noundef %10, ptr noundef %11) #10
  br label %14

13:                                               ; preds = %1
  br label %14

14:                                               ; preds = %13, %5
  %15 = phi ptr [ %12, %5 ], [ null, %13 ]
  ret ptr %15
}

; Function Attrs: nounwind uwtable
define ptr @Abc_SclReadLiberty(ptr noundef %0, i32 noundef %1, i32 noundef %2, i32 %3, ptr %4) #0 {
  %6 = alloca ptr, align 8
  %7 = alloca %struct.SC_DontUse_, align 8
  %8 = alloca ptr, align 8
  %9 = alloca i32, align 4
  %10 = alloca i32, align 4
  %11 = alloca ptr, align 8
  %12 = alloca ptr, align 8
  %13 = alloca ptr, align 8
  %14 = getelementptr inbounds { i32, ptr }, ptr %7, i32 0, i32 0
  store i32 %3, ptr %14, align 8
  %15 = getelementptr inbounds { i32, ptr }, ptr %7, i32 0, i32 1
  store ptr %4, ptr %15, align 8
  store ptr %0, ptr %8, align 8
  store i32 %1, ptr %9, align 4
  store i32 %2, ptr %10, align 4
  %16 = load ptr, ptr %8, align 8
  %17 = load i32, ptr %10, align 4
  %18 = call ptr @Scl_LibertyParse(ptr noundef %16, i32 noundef %17)
  store ptr %18, ptr %12, align 8
  %19 = load ptr, ptr %12, align 8
  %20 = icmp eq ptr %19, null
  br i1 %20, label %21, label %22

21:                                               ; preds = %5
  store ptr null, ptr %6, align 8
  br label %50

22:                                               ; preds = %5
  %23 = load ptr, ptr %12, align 8
  %24 = load i32, ptr %9, align 4
  %25 = load i32, ptr %10, align 4
  %26 = getelementptr inbounds { i32, ptr }, ptr %7, i32 0, i32 0
  %27 = load i32, ptr %26, align 8
  %28 = getelementptr inbounds { i32, ptr }, ptr %7, i32 0, i32 1
  %29 = load ptr, ptr %28, align 8
  %30 = call ptr @Scl_LibertyReadSclStr(ptr noundef %23, i32 noundef %24, i32 noundef %25, i32 %27, ptr %29)
  store ptr %30, ptr %13, align 8
  %31 = load ptr, ptr %12, align 8
  %32 = load i32, ptr %10, align 4
  call void @Scl_LibertyStop(ptr noundef %31, i32 noundef %32)
  %33 = load ptr, ptr %13, align 8
  %34 = icmp eq ptr %33, null
  br i1 %34, label %35, label %36

35:                                               ; preds = %22
  store ptr null, ptr %6, align 8
  br label %50

36:                                               ; preds = %22
  %37 = load ptr, ptr %13, align 8
  %38 = call ptr @Abc_SclReadFromStr(ptr noundef %37)
  store ptr %38, ptr %11, align 8
  %39 = load ptr, ptr %11, align 8
  %40 = icmp eq ptr %39, null
  br i1 %40, label %41, label %42

41:                                               ; preds = %36
  store ptr null, ptr %6, align 8
  br label %50

42:                                               ; preds = %36
  %43 = load ptr, ptr %8, align 8
  %44 = call ptr @Abc_UtilStrsav(ptr noundef %43)
  %45 = load ptr, ptr %11, align 8
  %46 = getelementptr inbounds %struct.SC_Lib_, ptr %45, i32 0, i32 1
  store ptr %44, ptr %46, align 8
  %47 = load ptr, ptr %11, align 8
  call void @Abc_SclLibNormalize(ptr noundef %47)
  %48 = load ptr, ptr %13, align 8
  call void @Vec_StrFree(ptr noundef %48)
  %49 = load ptr, ptr %11, align 8
  store ptr %49, ptr %6, align 8
  br label %50

50:                                               ; preds = %42, %41, %35, %21
  %51 = load ptr, ptr %6, align 8
  ret ptr %51
}