; Function Attrs: nounwind uwtable
define ptr @Abc_SclReadLiberty(ptr noundef %0, i32 noundef %1, i32 noundef %2, i32 %3, ptr readonly captures(none) %4) local_unnamed_addr #4 {
  %6 = tail call ptr @Scl_LibertyParse(ptr noundef %0, i32 noundef %2)
  %7 = icmp eq ptr %6, null
  br i1 %7, label %25, label %8

8:                                                ; preds = %5
  %9 = tail call ptr @Scl_LibertyReadSclStr(ptr noundef nonnull %6, i32 noundef %1, i32 noundef %2, i32 %3, ptr %4)
  tail call void @Scl_LibertyStop(ptr noundef nonnull %6, i32 noundef %2)
  %10 = icmp eq ptr %9, null
  br i1 %10, label %25, label %11

11:                                               ; preds = %8
  %12 = tail call ptr @Abc_SclReadFromStr(ptr noundef nonnull %9) #29
  %13 = icmp eq ptr %12, null
  br i1 %13, label %25, label %14

14:                                               ; preds = %11
  %.not.i = icmp eq ptr %0, null
  br i1 %.not.i, label %Abc_UtilStrsav.exit, label %15

15:                                               ; preds = %14
  %16 = tail call i64 @strlen(ptr noundef nonnull readonly dereferenceable(1) %0) #30
  %17 = add i64 %16, 1
  %18 = tail call noalias ptr @malloc(i64 noundef %17) #28
  %19 = tail call ptr @strcpy(ptr noundef nonnull dereferenceable(1) %18, ptr noundef nonnull readonly dereferenceable(1) %0) #29
  br label %Abc_UtilStrsav.exit

Abc_UtilStrsav.exit:                              ; preds = %14, %15
  %20 = phi ptr [ %18, %15 ], [ null, %14 ]
  %21 = getelementptr inbounds nuw i8, ptr %12, i64 8
  store ptr %20, ptr %21, align 8
  tail call void @Abc_SclLibNormalize(ptr noundef nonnull %12) #29
  %22 = getelementptr inbounds nuw i8, ptr %9, i64 8
  %23 = load ptr, ptr %22, align 8
  %.not.i19 = icmp eq ptr %23, null
  br i1 %.not.i19, label %Vec_StrFree.exit, label %24

24:                                               ; preds = %Abc_UtilStrsav.exit
  tail call void @free(ptr noundef nonnull %23) #29
  br label %Vec_StrFree.exit

Vec_StrFree.exit:                                 ; preds = %Abc_UtilStrsav.exit, %24
  tail call void @free(ptr noundef nonnull %9) #29
  br label %25

25:                                               ; preds = %11, %8, %5, %Vec_StrFree.exit
  %.0 = phi ptr [ %12, %Vec_StrFree.exit ], [ null, %5 ], [ null, %8 ], [ null, %11 ]
  ret ptr %.0
}